#include <math.h>
#include <stdio.h>
#include <stdlib.h>
#include <string.h>

int main()
{
	int num,i,j,k,m,flag,already;
	char a[100000];
	scanf("%d",&num);
	getchar();
	for(i=1;i<=num;i++)
	{
		for(j=0;j<99999;j++)
		{
			scanf("%c",&a[j]);
			if(a[j]=='\n') break;
		}
		for(k=0;k<j;k++)
		{
			flag=1;
			already=0;
			for(m=0;m<j;m++)
			{
				if(a[m]==a[k] && m!=k)
				{
					flag*=0;
					break;
				}
			}
			if(flag==1)
			{
				printf("%c\n",a[k]);
				already=1;
				break;
			}
		}
		if(already==0)
				printf("no\n");
	}
	return 0;
}